; Function Attrs: mustprogress nofree norecurse nosync nounwind willreturn memory(read, inaccessiblemem: none) uwtable
define hidden noundef i32 @_ZNK3sat4ddfw10value_hashEv(ptr noundef nonnull readonly align 8 captures(none) dereferenceable(434) %0) local_unnamed_addr #15 align 2 {
  %2 = getelementptr inbounds nuw i8, ptr %0, i64 88
  %3 = load ptr, ptr %2, align 8, !tbaa !34
  %4 = icmp eq ptr %3, null
  br i1 %4, label %._crit_edge, label %_ZNK6vectorIN3sat4ddfw8var_infoELb0EjE3endEv.exit

_ZNK6vectorIN3sat4ddfw8var_infoELb0EjE3endEv.exit: ; preds = %1
  %5 = getelementptr inbounds i8, ptr %3, i64 -4
  %6 = load i32, ptr %5, align 4, !tbaa !26
  %7 = zext i32 %6 to i64
  %8 = getelementptr inbounds nuw %"struct.sat::ddfw::var_info", ptr %3, i64 %7
  %.not13 = icmp eq i32 %6, 0
  br i1 %.not13, label %._crit_edge, label %.lr.ph

._crit_edge:                                      ; preds = %.lr.ph, %1, %_ZNK6vectorIN3sat4ddfw8var_infoELb0EjE3endEv.exit
  %.011.lcssa = phi i32 [ 0, %_ZNK6vectorIN3sat4ddfw8var_infoELb0EjE3endEv.exit ], [ 0, %1 ], [ %12, %.lr.ph ]
  ret i32 %.011.lcssa

.lr.ph:                                           ; preds = %_ZNK6vectorIN3sat4ddfw8var_infoELb0EjE3endEv.exit, %.lr.ph
  %.016 = phi i32 [ %11, %.lr.ph ], [ 0, %_ZNK6vectorIN3sat4ddfw8var_infoELb0EjE3endEv.exit ]
  %.01115 = phi i32 [ %12, %.lr.ph ], [ 0, %_ZNK6vectorIN3sat4ddfw8var_infoELb0EjE3endEv.exit ]
  %.01214 = phi ptr [ %13, %.lr.ph ], [ %3, %_ZNK6vectorIN3sat4ddfw8var_infoELb0EjE3endEv.exit ]
  %9 = load i8, ptr %.01214, align 8, !tbaa !142, !range !83, !noundef !84
  %10 = zext nneg i8 %9 to i32
  %11 = add i32 %.016, %10
  %12 = add i32 %11, %.01115
  %13 = getelementptr inbounds nuw i8, ptr %.01214, i64 64
  %.not = icmp eq ptr %13, %8
  br i1 %.not, label %._crit_edge, label %.lr.ph
}